; Function Attrs: nounwind uwtable
define internal i32 @_sort_job_by_user_name(ptr noundef readonly captures(none) %0, ptr noundef readonly captures(none) %1) #0 {
  %.val = load ptr, ptr %0, align 8
  %3 = getelementptr i8, ptr %.val, i64 8
  %.val.val = load ptr, ptr %3, align 8
  %4 = load ptr, ptr %1, align 8
  %5 = getelementptr inbounds nuw i8, ptr %4, i64 8
  %6 = load ptr, ptr %5, align 8
  %7 = getelementptr inbounds nuw i8, ptr %.val.val, i64 928
  %8 = load i32, ptr %7, align 8
  %9 = tail call ptr @uid_to_string_cached(i32 noundef %8) #11
  %10 = getelementptr inbounds nuw i8, ptr %6, i64 928
  %11 = load i32, ptr %10, align 8
  %12 = tail call ptr @uid_to_string_cached(i32 noundef %11) #11
  %13 = tail call i32 @xstrcmp(ptr noundef %9, ptr noundef %12) #11
  %.b5 = load i1, ptr @reverse_order, align 1
  %14 = sub nsw i32 0, %13
  %spec.select = select i1 %.b5, i32 %14, i32 %13
  ret i32 %spec.select
}